; Function Attrs: mustprogress nounwind uwtable
define hidden void @_ZN13ObjectSampler27oop_storage_gc_notificationEm(i64 noundef %0) #0 align 2 {
  %.not = icmp eq i64 %0, 0
  br i1 %.not, label %4, label %2

2:                                                ; preds = %1
  store volatile i8 1, ptr @_ZL13_dead_samples, align 1
  %3 = tail call noundef i64 @_ZN33FastUnorderedElapsedCounterSource3nowEv() #11
  store volatile i64 %3, ptr @_ZL11_last_sweep, align 8
  br label %4

4:                                                ; preds = %2, %1
  ret void
}